; Function Attrs: nounwind uwtable
define range(i32 -1, 1) i32 @H5HF__space_start(ptr noundef %0, i1 noundef zeroext %1) local_unnamed_addr #0 {
  %3 = alloca [4 x ptr], align 16
  %4 = alloca %struct.H5FS_create_t, align 8
  call void @llvm.memcpy.p0.p0.i64(ptr noundef nonnull align 16 dereferenceable(32) %3, ptr noundef nonnull align 16 dereferenceable(32) @__const.H5HF__space_start.classes, i64 32, i1 false)
  %5 = getelementptr inbounds i8, ptr %0, i64 384
  %6 = load i64, ptr %5, align 8
  %.not = icmp eq i64 %6, -1
  br i1 %.not, label %13, label %7

7:                                                ; preds = %2
  %8 = getelementptr inbounds i8, ptr %0, i64 600
  %9 = load ptr, ptr %8, align 8
  %10 = call ptr @H5FS_open(ptr noundef %9, i64 noundef %6, i16 noundef zeroext 4, ptr noundef nonnull %3, ptr noundef nonnull %0, i64 noundef 1, i64 noundef 1) #4
  %11 = getelementptr inbounds i8, ptr %0, i64 640
  store ptr %10, ptr %11, align 8
  %12 = icmp eq ptr %10, null
  br i1 %12, label %.sink.split, label %31

13:                                               ; preds = %2
  br i1 %1, label %14, label %31

14:                                               ; preds = %13
  store i32 0, ptr %4, align 8
  %15 = getelementptr inbounds i8, ptr %4, i64 4
  store i32 80, ptr %15, align 4
  %16 = getelementptr inbounds i8, ptr %4, i64 8
  store i32 120, ptr %16, align 8
  %17 = getelementptr inbounds i8, ptr %0, i64 280
  %18 = load i64, ptr %17, align 8
  %19 = getelementptr inbounds i8, ptr %4, i64 16
  store i64 %18, ptr %19, align 8
  %20 = getelementptr inbounds i8, ptr %0, i64 288
  %21 = load i32, ptr %20, align 8
  %22 = getelementptr inbounds i8, ptr %4, i64 12
  store i32 %21, ptr %22, align 4
  %23 = getelementptr inbounds i8, ptr %0, i64 600
  %24 = load ptr, ptr %23, align 8
  %25 = call ptr @H5FS_create(ptr noundef %24, ptr noundef nonnull %5, ptr noundef nonnull %4, i16 noundef zeroext 4, ptr noundef nonnull %3, ptr noundef nonnull %0, i64 noundef 1, i64 noundef 1) #4
  %26 = getelementptr inbounds i8, ptr %0, i64 640
  store ptr %25, ptr %26, align 8
  %27 = icmp eq ptr %25, null
  br i1 %27, label %.sink.split, label %31

.sink.split:                                      ; preds = %14, %7
  %.sink = phi i32 [ 101, %7 ], [ 119, %14 ]
  %28 = load i64, ptr @H5E_HEAP_g, align 8
  %29 = load i64, ptr @H5E_CANTINIT_g, align 8
  %30 = call i32 (ptr, ptr, i32, i64, i64, ptr, ...) @H5E_printf_stack(ptr noundef nonnull @.str, ptr noundef nonnull @__func__.H5HF__space_start, i32 noundef %.sink, i64 noundef %28, i64 noundef %29, ptr noundef nonnull @.str.1) #4
  br label %31

31:                                               ; preds = %.sink.split, %7, %14, %13
  %.0 = phi i32 [ 0, %7 ], [ 0, %14 ], [ 0, %13 ], [ -1, %.sink.split ]
  ret i32 %.0
}